target datalayout = "e-m:e-p270:32:32-p271:32:32-p272:64:64-i64:64-i128:128-f80:128-n8:16:32:64-S128"
target triple = "x86_64-pc-linux-gnu"

%struct.mempacket_test_ctx_st = type { ptr, i16, i32, i32, i32, i32, i32, i32, i32, i32 }
%struct.mempacket_st = type { ptr, i32, i32, i32 }

@.str.1 = private unnamed_addr constant [37 x i8] c"../openssl/test/helpers/ssltestlib.c\00", align 1

; Function Attrs: inlinehint nounwind uwtable
define internal i32 @sk_MEMPACKET_insert(ptr noundef %0, ptr noundef %1, i32 noundef %2) #3 {
  %4 = alloca ptr, align 8
  %5 = alloca ptr, align 8
  %6 = alloca i32, align 4
  store ptr %0, ptr %4, align 8, !tbaa !43
  store ptr %1, ptr %5, align 8, !tbaa !24
  store i32 %2, ptr %6, align 4, !tbaa !13
  %7 = load ptr, ptr %4, align 8, !tbaa !43
  %8 = load ptr, ptr %5, align 8, !tbaa !24
  %9 = load i32, ptr %6, align 4, !tbaa !13
  %10 = call i32 @OPENSSL_sk_insert(ptr noundef %7, ptr noundef %8, i32 noundef %9)
  ret i32 %10
}

; Function Attrs: inlinehint nounwind uwtable
define internal ptr @sk_MEMPACKET_value(ptr noundef %0, i32 noundef %1) #3 {
  %3 = alloca ptr, align 8
  %4 = alloca i32, align 4
  store ptr %0, ptr %3, align 8, !tbaa !43
  store i32 %1, ptr %4, align 4, !tbaa !13
  %5 = load ptr, ptr %3, align 8, !tbaa !43
  %6 = load i32, ptr %4, align 4, !tbaa !13
  %7 = call ptr @OPENSSL_sk_value(ptr noundef %5, i32 noundef %6)
  ret ptr %7
}

; Function Attrs: inlinehint nounwind uwtable
define internal i32 @sk_MEMPACKET_num(ptr noundef %0) #3 {
  %2 = alloca ptr, align 8
  store ptr %0, ptr %2, align 8, !tbaa !43
  %3 = load ptr, ptr %2, align 8, !tbaa !43
  %4 = call i32 @OPENSSL_sk_num(ptr noundef %3)
  ret i32 %4
}

; Function Attrs: nounwind uwtable
define dso_local i32 @mempacket_swap_epoch(ptr noundef %0) #0 {
  %2 = alloca i32, align 4
  %3 = alloca ptr, align 8
  %4 = alloca ptr, align 8
  %5 = alloca ptr, align 8
  %6 = alloca i32, align 4
  %7 = alloca i32, align 4
  %8 = alloca i32, align 4
  %9 = alloca i32, align 4
  %10 = alloca ptr, align 8
  %11 = alloca ptr, align 8
  %12 = alloca ptr, align 8
  %13 = alloca i32, align 4
  %14 = alloca i32, align 4
  %15 = alloca i32, align 4
  store ptr %0, ptr %3, align 8, !tbaa !9
  call void @llvm.lifetime.start.p0(i64 8, ptr %4) #10
  %16 = load ptr, ptr %3, align 8, !tbaa !9
  %17 = call ptr @BIO_get_data(ptr noundef %16)
  store ptr %17, ptr %4, align 8, !tbaa !18
  call void @llvm.lifetime.start.p0(i64 8, ptr %5) #10
  call void @llvm.lifetime.start.p0(i64 4, ptr %6) #10
  call void @llvm.lifetime.start.p0(i64 4, ptr %7) #10
  call void @llvm.lifetime.start.p0(i64 4, ptr %8) #10
  store i32 0, ptr %8, align 4, !tbaa !13
  call void @llvm.lifetime.start.p0(i64 4, ptr %9) #10
  call void @llvm.lifetime.start.p0(i64 8, ptr %10) #10
  call void @llvm.lifetime.start.p0(i64 8, ptr %11) #10
  store ptr null, ptr %11, align 8, !tbaa !11
  call void @llvm.lifetime.start.p0(i64 8, ptr %12) #10
  call void @llvm.lifetime.start.p0(i64 4, ptr %13) #10
  call void @llvm.lifetime.start.p0(i64 4, ptr %14) #10
  %18 = load ptr, ptr %4, align 8, !tbaa !18
  %19 = getelementptr inbounds nuw %struct.mempacket_test_ctx_st, ptr %18, i32 0, i32 0
  %20 = load ptr, ptr %19, align 8, !tbaa !20
  %21 = call i32 @sk_MEMPACKET_num(ptr noundef %20)
  store i32 %21, ptr %14, align 4, !tbaa !13
  %22 = load i32, ptr %14, align 4, !tbaa !13
  %23 = icmp sle i32 %22, 0
  br i1 %23, label %24, label %25

24:                                               ; preds = %1
  store i32 0, ptr %2, align 4
  store i32 1, ptr %15, align 4
  br label %151

25:                                               ; preds = %1
  %26 = load ptr, ptr %4, align 8, !tbaa !18
  %27 = getelementptr inbounds nuw %struct.mempacket_test_ctx_st, ptr %26, i32 0, i32 0
  %28 = load ptr, ptr %27, align 8, !tbaa !20
  %29 = load i32, ptr %14, align 4, !tbaa !13
  %30 = sub nsw i32 %29, 1
  %31 = call ptr @sk_MEMPACKET_value(ptr noundef %28, i32 noundef %30)
  store ptr %31, ptr %5, align 8, !tbaa !24
  %32 = load ptr, ptr %5, align 8, !tbaa !24
  %33 = icmp eq ptr %32, null
  br i1 %33, label %34, label %35

34:                                               ; preds = %25
  store i32 0, ptr %2, align 4
  store i32 1, ptr %15, align 4
  br label %151

35:                                               ; preds = %25
  %36 = load ptr, ptr %5, align 8, !tbaa !24
  %37 = getelementptr inbounds nuw %struct.mempacket_st, ptr %36, i32 0, i32 1
  %38 = load i32, ptr %37, align 8, !tbaa !29
  store i32 %38, ptr %6, align 4, !tbaa !13
  %39 = load ptr, ptr %5, align 8, !tbaa !24
  %40 = getelementptr inbounds nuw %struct.mempacket_st, ptr %39, i32 0, i32 0
  %41 = load ptr, ptr %40, align 8, !tbaa !33
  store ptr %41, ptr %10, align 8, !tbaa !11
  br label %42

42:                                               ; preds = %142, %35
  %43 = load i32, ptr %6, align 4, !tbaa !13
  %44 = icmp sgt i32 %43, 0
  br i1 %44, label %45, label %150

45:                                               ; preds = %42
  %46 = load i32, ptr %6, align 4, !tbaa !13
  %47 = icmp slt i32 %46, 13
  br i1 %47, label %48, label %49

48:                                               ; preds = %45
  store i32 0, ptr %2, align 4
  store i32 1, ptr %15, align 4
  br label %151

49:                                               ; preds = %45
  %50 = load ptr, ptr %10, align 8, !tbaa !11
  %51 = getelementptr inbounds i8, ptr %50, i64 3
  %52 = load i8, ptr %51, align 1, !tbaa !34
  %53 = zext i8 %52 to i32
  %54 = shl i32 %53, 8
  %55 = load ptr, ptr %10, align 8, !tbaa !11
  %56 = getelementptr inbounds i8, ptr %55, i64 4
  %57 = load i8, ptr %56, align 1, !tbaa !34
  %58 = zext i8 %57 to i32
  %59 = or i32 %54, %58
  store i32 %59, ptr %13, align 4, !tbaa !13
  %60 = load ptr, ptr %10, align 8, !tbaa !11
  %61 = getelementptr inbounds i8, ptr %60, i64 11
  %62 = load i8, ptr %61, align 1, !tbaa !34
  %63 = zext i8 %62 to i32
  %64 = shl i32 %63, 8
  %65 = load ptr, ptr %10, align 8, !tbaa !11
  %66 = getelementptr inbounds i8, ptr %65, i64 12
  %67 = load i8, ptr %66, align 1, !tbaa !34
  %68 = zext i8 %67 to i32
  %69 = or i32 %64, %68
  %70 = add nsw i32 %69, 13
  store i32 %70, ptr %7, align 4, !tbaa !13
  %71 = load i32, ptr %6, align 4, !tbaa !13
  %72 = load i32, ptr %7, align 4, !tbaa !13
  %73 = icmp slt i32 %71, %72
  br i1 %73, label %74, label %75

74:                                               ; preds = %49
  store i32 0, ptr %2, align 4
  store i32 1, ptr %15, align 4
  br label %151

75:                                               ; preds = %49
  %76 = load i32, ptr %13, align 4, !tbaa !13
  %77 = load ptr, ptr %4, align 8, !tbaa !18
  %78 = getelementptr inbounds nuw %struct.mempacket_test_ctx_st, ptr %77, i32 0, i32 1
  %79 = load i16, ptr %78, align 8, !tbaa !35
  %80 = zext i16 %79 to i32
  %81 = icmp ne i32 %76, %80
  br i1 %81, label %82, label %139

82:                                               ; preds = %75
  %83 = load ptr, ptr %11, align 8, !tbaa !11
  %84 = icmp eq ptr %83, null
  br i1 %84, label %85, label %86

85:                                               ; preds = %82
  store i32 0, ptr %2, align 4
  store i32 1, ptr %15, align 4
  br label %151

86:                                               ; preds = %82
  %87 = load i32, ptr %8, align 4, !tbaa !13
  %88 = sext i32 %87 to i64
  %89 = call noalias ptr @CRYPTO_malloc(i64 noundef %88, ptr noundef @.str.1, i32 noundef 462)
  store ptr %89, ptr %12, align 8, !tbaa !11
  %90 = load ptr, ptr %12, align 8, !tbaa !11
  %91 = icmp eq ptr %90, null
  br i1 %91, label %92, label %93

92:                                               ; preds = %86
  store i32 0, ptr %2, align 4
  store i32 1, ptr %15, align 4
  br label %151

93:                                               ; preds = %86
  %94 = load ptr, ptr %12, align 8, !tbaa !11
  %95 = load ptr, ptr %11, align 8, !tbaa !11
  %96 = load i32, ptr %8, align 4, !tbaa !13
  %97 = sext i32 %96 to i64
  call void @llvm.memcpy.p0.p0.i64(ptr align 1 %94, ptr align 1 %95, i64 %97, i1 false)
  %98 = load ptr, ptr %11, align 8, !tbaa !11
  %99 = load ptr, ptr %10, align 8, !tbaa !11
  %100 = load i32, ptr %6, align 4, !tbaa !13
  %101 = sext i32 %100 to i64
  call void @llvm.memmove.p0.p0.i64(ptr align 1 %98, ptr align 1 %99, i64 %101, i1 false)
  %102 = load i32, ptr %8, align 4, !tbaa !13
  %103 = load ptr, ptr %5, align 8, !tbaa !24
  %104 = getelementptr inbounds nuw %struct.mempacket_st, ptr %103, i32 0, i32 1
  %105 = load i32, ptr %104, align 8, !tbaa !29
  %106 = sub nsw i32 %105, %102
  store i32 %106, ptr %104, align 8, !tbaa !29
  %107 = load ptr, ptr %5, align 8, !tbaa !24
  %108 = getelementptr inbounds nuw %struct.mempacket_st, ptr %107, i32 0, i32 2
  %109 = load i32, ptr %108, align 4, !tbaa !26
  store i32 %109, ptr %9, align 4, !tbaa !13
  %110 = call noalias ptr @CRYPTO_malloc(i64 noundef 24, ptr noundef @.str.1, i32 noundef 479)
  store ptr %110, ptr %5, align 8, !tbaa !24
  %111 = load ptr, ptr %5, align 8, !tbaa !24
  %112 = icmp eq ptr %111, null
  br i1 %112, label %113, label %115

113:                                              ; preds = %93
  %114 = load ptr, ptr %12, align 8, !tbaa !11
  call void @CRYPTO_free(ptr noundef %114, ptr noundef @.str.1, i32 noundef 481)
  store i32 0, ptr %2, align 4
  store i32 1, ptr %15, align 4
  br label %151

115:                                              ; preds = %93
  %116 = load ptr, ptr %5, align 8, !tbaa !24
  %117 = getelementptr inbounds nuw %struct.mempacket_st, ptr %116, i32 0, i32 3
  store i32 1, ptr %117, align 8, !tbaa !30
  %118 = load ptr, ptr %12, align 8, !tbaa !11
  %119 = load ptr, ptr %5, align 8, !tbaa !24
  %120 = getelementptr inbounds nuw %struct.mempacket_st, ptr %119, i32 0, i32 0
  store ptr %118, ptr %120, align 8, !tbaa !33
  %121 = load i32, ptr %8, align 4, !tbaa !13
  %122 = load ptr, ptr %5, align 8, !tbaa !24
  %123 = getelementptr inbounds nuw %struct.mempacket_st, ptr %122, i32 0, i32 1
  store i32 %121, ptr %123, align 8, !tbaa !29
  %124 = load i32, ptr %9, align 4, !tbaa !13
  %125 = add nsw i32 %124, 1
  %126 = load ptr, ptr %5, align 8, !tbaa !24
  %127 = getelementptr inbounds nuw %struct.mempacket_st, ptr %126, i32 0, i32 2
  store i32 %125, ptr %127, align 4, !tbaa !26
  %128 = load ptr, ptr %4, align 8, !tbaa !18
  %129 = getelementptr inbounds nuw %struct.mempacket_test_ctx_st, ptr %128, i32 0, i32 0
  %130 = load ptr, ptr %129, align 8, !tbaa !20
  %131 = load ptr, ptr %5, align 8, !tbaa !24
  %132 = load i32, ptr %14, align 4, !tbaa !13
  %133 = call i32 @sk_MEMPACKET_insert(ptr noundef %130, ptr noundef %131, i32 noundef %132)
  %134 = icmp sle i32 %133, 0
  br i1 %134, label %135, label %138

135:                                              ; preds = %115
  %136 = load ptr, ptr %12, align 8, !tbaa !11
  call void @CRYPTO_free(ptr noundef %136, ptr noundef @.str.1, i32 noundef 489)
  %137 = load ptr, ptr %5, align 8, !tbaa !24
  call void @CRYPTO_free(ptr noundef %137, ptr noundef @.str.1, i32 noundef 490)
  store i32 0, ptr %2, align 4
  store i32 1, ptr %15, align 4
  br label %151

138:                                              ; preds = %115
  store i32 1, ptr %2, align 4
  store i32 1, ptr %15, align 4
  br label %151

139:                                              ; preds = %75
  %140 = load ptr, ptr %10, align 8, !tbaa !11
  store ptr %140, ptr %11, align 8, !tbaa !11
  %141 = load i32, ptr %7, align 4, !tbaa !13
  store i32 %141, ptr %8, align 4, !tbaa !13
  br label %142

142:                                              ; preds = %139
  %143 = load i32, ptr %7, align 4, !tbaa !13
  %144 = load i32, ptr %6, align 4, !tbaa !13
  %145 = sub nsw i32 %144, %143
  store i32 %145, ptr %6, align 4, !tbaa !13
  %146 = load i32, ptr %7, align 4, !tbaa !13
  %147 = load ptr, ptr %10, align 8, !tbaa !11
  %148 = sext i32 %146 to i64
  %149 = getelementptr inbounds i8, ptr %147, i64 %148
  store ptr %149, ptr %10, align 8, !tbaa !11
  br label %42, !llvm.loop !42

150:                                              ; preds = %42
  store i32 0, ptr %2, align 4
  store i32 1, ptr %15, align 4
  br label %151

151:                                              ; preds = %150, %138, %135, %113, %92, %85, %74, %48, %34, %24
  call void @llvm.lifetime.end.p0(i64 4, ptr %14) #10
  call void @llvm.lifetime.end.p0(i64 4, ptr %13) #10
  call void @llvm.lifetime.end.p0(i64 8, ptr %12) #10
  call void @llvm.lifetime.end.p0(i64 8, ptr %11) #10
  call void @llvm.lifetime.end.p0(i64 8, ptr %10) #10
  call void @llvm.lifetime.end.p0(i64 4, ptr %9) #10
  call void @llvm.lifetime.end.p0(i64 4, ptr %8) #10
  call void @llvm.lifetime.end.p0(i64 4, ptr %7) #10
  call void @llvm.lifetime.end.p0(i64 4, ptr %6) #10
  call void @llvm.lifetime.end.p0(i64 8, ptr %5) #10
  call void @llvm.lifetime.end.p0(i64 8, ptr %4) #10
  %152 = load i32, ptr %2, align 4
  ret i32 %152
}