; Function Attrs: nounwind uwtable
define dso_local range(i32 0, 2) i32 @mempacket_swap_epoch(ptr noundef %0) local_unnamed_addr #0 {
  %2 = tail call ptr @BIO_get_data(ptr noundef %0) #14
  %3 = load ptr, ptr %2, align 8, !tbaa !15
  %4 = tail call i32 @OPENSSL_sk_num(ptr noundef %3) #14
  %5 = icmp slt i32 %4, 1
  br i1 %5, label %.loopexit, label %6

6:                                                ; preds = %1
  %7 = load ptr, ptr %2, align 8, !tbaa !15
  %8 = add nsw i32 %4, -1
  %9 = tail call ptr @OPENSSL_sk_value(ptr noundef %7, i32 noundef %8) #14
  %10 = icmp eq ptr %9, null
  br i1 %10, label %.loopexit, label %11

11:                                               ; preds = %6
  %12 = getelementptr inbounds nuw i8, ptr %9, i64 8
  %13 = load i32, ptr %12, align 8, !tbaa !24
  %14 = icmp slt i32 %13, 13
  br i1 %14, label %.loopexit, label %.lr.ph

.lr.ph:                                           ; preds = %11
  %15 = load ptr, ptr %9, align 8, !tbaa !28
  %16 = getelementptr inbounds nuw i8, ptr %2, i64 8
  br label %17

17:                                               ; preds = %.lr.ph, %63
  %.05066 = phi i32 [ %13, %.lr.ph ], [ %64, %63 ]
  %.05165 = phi ptr [ null, %.lr.ph ], [ %.05264, %63 ]
  %.05264 = phi ptr [ %15, %.lr.ph ], [ %66, %63 ]
  %.05363 = phi i32 [ 0, %.lr.ph ], [ %26, %63 ]
  %18 = getelementptr inbounds nuw i8, ptr %.05264, i64 11
  %19 = load i8, ptr %18, align 1, !tbaa !9
  %20 = zext i8 %19 to i32
  %21 = shl nuw nsw i32 %20, 8
  %22 = getelementptr inbounds nuw i8, ptr %.05264, i64 12
  %23 = load i8, ptr %22, align 1, !tbaa !9
  %24 = zext i8 %23 to i32
  %25 = or disjoint i32 %21, %24
  %26 = add nuw nsw i32 %25, 13
  %27 = icmp samesign ult i32 %.05066, %26
  br i1 %27, label %.loopexit, label %28

28:                                               ; preds = %17
  %29 = getelementptr inbounds nuw i8, ptr %.05264, i64 3
  %30 = load i8, ptr %29, align 1, !tbaa !9
  %31 = zext i8 %30 to i32
  %32 = shl nuw nsw i32 %31, 8
  %33 = getelementptr inbounds nuw i8, ptr %.05264, i64 4
  %34 = load i8, ptr %33, align 1, !tbaa !9
  %35 = zext i8 %34 to i32
  %36 = or disjoint i32 %32, %35
  %37 = load i16, ptr %16, align 8, !tbaa !29
  %38 = zext i16 %37 to i32
  %.not = icmp eq i32 %36, %38
  br i1 %.not, label %63, label %39

39:                                               ; preds = %28
  %40 = icmp eq ptr %.05165, null
  br i1 %40, label %.loopexit, label %41

41:                                               ; preds = %39
  %42 = zext nneg i32 %.05363 to i64
  %43 = tail call noalias ptr @CRYPTO_malloc(i64 noundef %42, ptr noundef nonnull @.str.1, i32 noundef 462) #14
  %44 = icmp eq ptr %43, null
  br i1 %44, label %.loopexit, label %45

45:                                               ; preds = %41
  tail call void @llvm.memcpy.p0.p0.i64(ptr nonnull align 1 %43, ptr nonnull align 1 %.05165, i64 %42, i1 false)
  %46 = zext nneg i32 %.05066 to i64
  tail call void @llvm.memmove.p0.p0.i64(ptr nonnull align 1 %.05165, ptr nonnull align 1 %.05264, i64 %46, i1 false)
  %47 = load i32, ptr %12, align 8, !tbaa !24
  %48 = sub nsw i32 %47, %.05363
  store i32 %48, ptr %12, align 8, !tbaa !24
  %49 = getelementptr inbounds nuw i8, ptr %9, i64 12
  %50 = load i32, ptr %49, align 4, !tbaa !20
  %51 = tail call noalias ptr @CRYPTO_malloc(i64 noundef 24, ptr noundef nonnull @.str.1, i32 noundef 479) #14
  %52 = icmp eq ptr %51, null
  br i1 %52, label %53, label %54

53:                                               ; preds = %45
  tail call void @CRYPTO_free(ptr noundef nonnull %43, ptr noundef nonnull @.str.1, i32 noundef 481) #14
  br label %.loopexit

54:                                               ; preds = %45
  %55 = getelementptr inbounds nuw i8, ptr %51, i64 16
  store i32 1, ptr %55, align 8, !tbaa !25
  store ptr %43, ptr %51, align 8, !tbaa !28
  %56 = getelementptr inbounds nuw i8, ptr %51, i64 8
  store i32 %.05363, ptr %56, align 8, !tbaa !24
  %57 = add nsw i32 %50, 1
  %58 = getelementptr inbounds nuw i8, ptr %51, i64 12
  store i32 %57, ptr %58, align 4, !tbaa !20
  %59 = load ptr, ptr %2, align 8, !tbaa !15
  %60 = tail call i32 @OPENSSL_sk_insert(ptr noundef %59, ptr noundef nonnull %51, i32 noundef %4) #14
  %61 = icmp slt i32 %60, 1
  br i1 %61, label %62, label %.loopexit

62:                                               ; preds = %54
  tail call void @CRYPTO_free(ptr noundef nonnull %43, ptr noundef nonnull @.str.1, i32 noundef 489) #14
  tail call void @CRYPTO_free(ptr noundef nonnull %51, ptr noundef nonnull @.str.1, i32 noundef 490) #14
  br label %.loopexit

63:                                               ; preds = %28
  %64 = sub nsw i32 %.05066, %26
  %65 = zext nneg i32 %26 to i64
  %66 = getelementptr inbounds nuw i8, ptr %.05264, i64 %65
  %67 = icmp slt i32 %64, 13
  br i1 %67, label %.loopexit, label %17, !llvm.loop !35

.loopexit:                                        ; preds = %17, %63, %11, %54, %41, %39, %6, %1, %62, %53
  %.0 = phi i32 [ 0, %53 ], [ 0, %62 ], [ 0, %1 ], [ 0, %6 ], [ 0, %39 ], [ 0, %41 ], [ 1, %54 ], [ 0, %11 ], [ 0, %63 ], [ 0, %17 ]
  ret i32 %.0
}